; ModuleID = '35/1651.c'
source_filename = "35/1651.c"
target datalayout = "e-m:e-p270:32:32-p271:32:32-p272:64:64-i64:64-f80:128-n8:16:32:64-S128"
target triple = "x86_64-pc-linux-gnu"

@.str = private unnamed_addr constant [3 x i8] c"%d\00", align 1
@.str.1 = private unnamed_addr constant [6 x i8] c"%d+%d\00", align 1
@.str.2 = private unnamed_addr constant [3 x i8] c"No\00", align 1

; Function Attrs: noinline nounwind uwtable
define dso_local i32 @main() #0 {
  %1 = alloca i32, align 4
  %2 = alloca [8 x [8 x i32]], align 16
  %3 = alloca [8 x i32], align 16
  %4 = alloca i32, align 4
  %5 = alloca i32, align 4
  %6 = alloca i32, align 4
  %7 = alloca i32, align 4
  %8 = alloca i32, align 4
  %9 = alloca i32, align 4
  store i32 0, i32* %1, align 4
  store i32 0, i32* %7, align 4
  %10 = call i32 (i8*, ...) @__isoc99_scanf(i8* getelementptr inbounds ([3 x i8], [3 x i8]* @.str, i64 0, i64 0), i32* %8)
  %11 = call i32 @getchar()
  %12 = call i32 (i8*, ...) @__isoc99_scanf(i8* getelementptr inbounds ([3 x i8], [3 x i8]* @.str, i64 0, i64 0), i32* %9)
  store i32 0, i32* %4, align 4
  br label %13

13:                                               ; preds = %34, %0
  %14 = load i32, i32* %4, align 4
  %15 = load i32, i32* %8, align 4
  %16 = icmp slt i32 %14, %15
  br i1 %16, label %17, label %37

17:                                               ; preds = %13
  store i32 0, i32* %5, align 4
  br label %18

18:                                               ; preds = %30, %17
  %19 = load i32, i32* %5, align 4
  %20 = load i32, i32* %9, align 4
  %21 = icmp slt i32 %19, %20
  br i1 %21, label %22, label %33

22:                                               ; preds = %18
  %23 = load i32, i32* %4, align 4
  %24 = sext i32 %23 to i64
  %25 = getelementptr inbounds [8 x [8 x i32]], [8 x [8 x i32]]* %2, i64 0, i64 %24
  %26 = load i32, i32* %5, align 4
  %27 = sext i32 %26 to i64
  %28 = getelementptr inbounds [8 x i32], [8 x i32]* %25, i64 0, i64 %27
  %29 = call i32 (i8*, ...) @__isoc99_scanf(i8* getelementptr inbounds ([3 x i8], [3 x i8]* @.str, i64 0, i64 0), i32* %28)
  br label %30

30:                                               ; preds = %22
  %31 = load i32, i32* %5, align 4
  %32 = add nsw i32 %31, 1
  store i32 %32, i32* %5, align 4
  br label %18

33:                                               ; preds = %18
  br label %34

34:                                               ; preds = %33
  %35 = load i32, i32* %4, align 4
  %36 = add nsw i32 %35, 1
  store i32 %36, i32* %4, align 4
  br label %13

37:                                               ; preds = %13
  store i32 0, i32* %4, align 4
  br label %38

38:                                               ; preds = %79, %37
  %39 = load i32, i32* %4, align 4
  %40 = load i32, i32* %8, align 4
  %41 = icmp slt i32 %39, %40
  br i1 %41, label %42, label %82

42:                                               ; preds = %38
  %43 = load i32, i32* %4, align 4
  %44 = sext i32 %43 to i64
  %45 = getelementptr inbounds [8 x i32], [8 x i32]* %3, i64 0, i64 %44
  store i32 0, i32* %45, align 4
  store i32 0, i32* %5, align 4
  br label %46

46:                                               ; preds = %75, %42
  %47 = load i32, i32* %5, align 4
  %48 = load i32, i32* %9, align 4
  %49 = icmp slt i32 %47, %48
  br i1 %49, label %50, label %78

50:                                               ; preds = %46
  %51 = load i32, i32* %4, align 4
  %52 = sext i32 %51 to i64
  %53 = getelementptr inbounds [8 x [8 x i32]], [8 x [8 x i32]]* %2, i64 0, i64 %52
  %54 = load i32, i32* %5, align 4
  %55 = sext i32 %54 to i64
  %56 = getelementptr inbounds [8 x i32], [8 x i32]* %53, i64 0, i64 %55
  %57 = load i32, i32* %56, align 4
  %58 = load i32, i32* %4, align 4
  %59 = sext i32 %58 to i64
  %60 = getelementptr inbounds [8 x [8 x i32]], [8 x [8 x i32]]* %2, i64 0, i64 %59
  %61 = load i32, i32* %4, align 4
  %62 = sext i32 %61 to i64
  %63 = getelementptr inbounds [8 x i32], [8 x i32]* %3, i64 0, i64 %62
  %64 = load i32, i32* %63, align 4
  %65 = sext i32 %64 to i64
  %66 = getelementptr inbounds [8 x i32], [8 x i32]* %60, i64 0, i64 %65
  %67 = load i32, i32* %66, align 4
  %68 = icmp sgt i32 %57, %67
  br i1 %68, label %69, label %74

69:                                               ; preds = %50
  %70 = load i32, i32* %5, align 4
  %71 = load i32, i32* %4, align 4
  %72 = sext i32 %71 to i64
  %73 = getelementptr inbounds [8 x i32], [8 x i32]* %3, i64 0, i64 %72
  store i32 %70, i32* %73, align 4
  br label %74

74:                                               ; preds = %69, %50
  br label %75

75:                                               ; preds = %74
  %76 = load i32, i32* %5, align 4
  %77 = add nsw i32 %76, 1
  store i32 %77, i32* %5, align 4
  br label %46

78:                                               ; preds = %46
  br label %79

79:                                               ; preds = %78
  %80 = load i32, i32* %4, align 4
  %81 = add nsw i32 %80, 1
  store i32 %81, i32* %4, align 4
  br label %38

82:                                               ; preds = %38
  store i32 0, i32* %4, align 4
  br label %83

83:                                               ; preds = %154, %82
  %84 = load i32, i32* %4, align 4
  %85 = load i32, i32* %8, align 4
  %86 = icmp slt i32 %84, %85
  br i1 %86, label %87, label %157

87:                                               ; preds = %83
  store i32 0, i32* %6, align 4
  br label %88

88:                                               ; preds = %150, %87
  %89 = load i32, i32* %6, align 4
  %90 = load i32, i32* %8, align 4
  %91 = icmp slt i32 %89, %90
  br i1 %91, label %92, label %153

92:                                               ; preds = %88
  %93 = load i32, i32* %6, align 4
  %94 = sext i32 %93 to i64
  %95 = getelementptr inbounds [8 x [8 x i32]], [8 x [8 x i32]]* %2, i64 0, i64 %94
  %96 = load i32, i32* %4, align 4
  %97 = sext i32 %96 to i64
  %98 = getelementptr inbounds [8 x i32], [8 x i32]* %3, i64 0, i64 %97
  %99 = load i32, i32* %98, align 4
  %100 = sext i32 %99 to i64
  %101 = getelementptr inbounds [8 x i32], [8 x i32]* %95, i64 0, i64 %100
  %102 = load i32, i32* %101, align 4
  %103 = load i32, i32* %4, align 4
  %104 = sext i32 %103 to i64
  %105 = getelementptr inbounds [8 x [8 x i32]], [8 x [8 x i32]]* %2, i64 0, i64 %104
  %106 = load i32, i32* %4, align 4
  %107 = sext i32 %106 to i64
  %108 = getelementptr inbounds [8 x i32], [8 x i32]* %3, i64 0, i64 %107
  %109 = load i32, i32* %108, align 4
  %110 = sext i32 %109 to i64
  %111 = getelementptr inbounds [8 x i32], [8 x i32]* %105, i64 0, i64 %110
  %112 = load i32, i32* %111, align 4
  %113 = icmp slt i32 %102, %112
  br i1 %113, label %114, label %115

114:                                              ; preds = %92
  br label %153

115:                                              ; preds = %92
  %116 = load i32, i32* %6, align 4
  %117 = sext i32 %116 to i64
  %118 = getelementptr inbounds [8 x [8 x i32]], [8 x [8 x i32]]* %2, i64 0, i64 %117
  %119 = load i32, i32* %4, align 4
  %120 = sext i32 %119 to i64
  %121 = getelementptr inbounds [8 x i32], [8 x i32]* %3, i64 0, i64 %120
  %122 = load i32, i32* %121, align 4
  %123 = sext i32 %122 to i64
  %124 = getelementptr inbounds [8 x i32], [8 x i32]* %118, i64 0, i64 %123
  %125 = load i32, i32* %124, align 4
  %126 = load i32, i32* %4, align 4
  %127 = sext i32 %126 to i64
  %128 = getelementptr inbounds [8 x [8 x i32]], [8 x [8 x i32]]* %2, i64 0, i64 %127
  %129 = load i32, i32* %4, align 4
  %130 = sext i32 %129 to i64
  %131 = getelementptr inbounds [8 x i32], [8 x i32]* %3, i64 0, i64 %130
  %132 = load i32, i32* %131, align 4
  %133 = sext i32 %132 to i64
  %134 = getelementptr inbounds [8 x i32], [8 x i32]* %128, i64 0, i64 %133
  %135 = load i32, i32* %134, align 4
  %136 = icmp sge i32 %125, %135
  br i1 %136, label %137, label %149

137:                                              ; preds = %115
  %138 = load i32, i32* %6, align 4
  %139 = load i32, i32* %8, align 4
  %140 = sub nsw i32 %139, 1
  %141 = icmp eq i32 %138, %140
  br i1 %141, label %142, label %149

142:                                              ; preds = %137
  %143 = load i32, i32* %4, align 4
  %144 = load i32, i32* %4, align 4
  %145 = sext i32 %144 to i64
  %146 = getelementptr inbounds [8 x i32], [8 x i32]* %3, i64 0, i64 %145
  %147 = load i32, i32* %146, align 4
  %148 = call i32 (i8*, ...) @printf(i8* getelementptr inbounds ([6 x i8], [6 x i8]* @.str.1, i64 0, i64 0), i32 %143, i32 %147)
  store i32 1, i32* %7, align 4
  br label %149

149:                                              ; preds = %142, %137, %115
  br label %150

150:                                              ; preds = %149
  %151 = load i32, i32* %6, align 4
  %152 = add nsw i32 %151, 1
  store i32 %152, i32* %6, align 4
  br label %88

153:                                              ; preds = %114, %88
  br label %154

154:                                              ; preds = %153
  %155 = load i32, i32* %4, align 4
  %156 = add nsw i32 %155, 1
  store i32 %156, i32* %4, align 4
  br label %83

157:                                              ; preds = %83
  %158 = load i32, i32* %7, align 4
  %159 = icmp eq i32 %158, 0
  br i1 %159, label %160, label %162

160:                                              ; preds = %157
  %161 = call i32 (i8*, ...) @printf(i8* getelementptr inbounds ([3 x i8], [3 x i8]* @.str.2, i64 0, i64 0))
  br label %162

162:                                              ; preds = %160, %157
  ret i32 0
}

declare dso_local i32 @__isoc99_scanf(i8*, ...) #1

declare dso_local i32 @getchar() #1

declare dso_local i32 @printf(i8*, ...) #1


!llvm.module.flags = !{!0}
!llvm.ident = !{!1}

!0 = !{i32 1, !"wchar_size", i32 4}
!1 = !{!"clang version 10.0.0-4ubuntu1 "}
